target datalayout = "e-m:e-p270:32:32-p271:32:32-p272:64:64-i64:64-i128:128-f80:128-n8:16:32:64-S128"
target triple = "x86_64-pc-linux-gnu"

%"class.OpenSubdiv::v3_6_0::Bfr::SurfaceFactory" = type { %"class.OpenSubdiv::v3_6_0::Bfr::SurfaceFactoryMeshAdapter", i32, %"class.OpenSubdiv::v3_6_0::Sdc::Options", %"class.OpenSubdiv::v3_6_0::Bfr::SurfaceFactory::Options", i8, i32, ptr }
%"class.OpenSubdiv::v3_6_0::Bfr::SurfaceFactoryMeshAdapter" = type { ptr }
%"class.OpenSubdiv::v3_6_0::Sdc::Options" = type { i8, i8, i8, i8 }
%"class.OpenSubdiv::v3_6_0::Bfr::SurfaceFactory::Options" = type <{ i64, ptr, i8, i8, i8, [5 x i8] }>

; Function Attrs: mustprogress nounwind uwtable
define linkonce_odr noundef i32 @_ZNK10OpenSubdiv6v3_6_03Sdc7Options27GetVtxBoundaryInterpolationEv(ptr noundef nonnull align 1 dereferenceable(4) %0) #0 comdat align 2 {
  %2 = alloca ptr, align 8
  store ptr %0, ptr %2, align 8
  %3 = load ptr, ptr %2, align 8
  %4 = getelementptr inbounds nuw %"class.OpenSubdiv::v3_6_0::Sdc::Options", ptr %3, i32 0, i32 0
  %5 = load i8, ptr %4, align 1
  %6 = zext i8 %5 to i32
  ret i32 %6
}

; Function Attrs: mustprogress nounwind uwtable
define linkonce_odr noundef i32 @_ZNK10OpenSubdiv6v3_6_03Sdc7Options26GetFVarLinearInterpolationEv(ptr noundef nonnull align 1 dereferenceable(4) %0) #0 comdat align 2 {
  %2 = alloca ptr, align 8
  store ptr %0, ptr %2, align 8
  %3 = load ptr, ptr %2, align 8
  %4 = getelementptr inbounds nuw %"class.OpenSubdiv::v3_6_0::Sdc::Options", ptr %3, i32 0, i32 1
  %5 = load i8, ptr %4, align 1
  %6 = zext i8 %5 to i32
  ret i32 %6
}

; Function Attrs: mustprogress uwtable
define void @_ZN10OpenSubdiv6v3_6_03Bfr14SurfaceFactory21setSubdivisionOptionsENS0_3Sdc10SchemeTypeERKNS3_7OptionsE(ptr noundef nonnull align 8 dereferenceable(56) %0, i32 noundef %1, ptr noundef nonnull align 1 dereferenceable(4) %2) #1 align 2 {
  %4 = alloca ptr, align 8
  %5 = alloca i32, align 4
  %6 = alloca ptr, align 8
  store ptr %0, ptr %4, align 8
  store i32 %1, ptr %5, align 4
  store ptr %2, ptr %6, align 8
  %7 = load ptr, ptr %4, align 8
  %8 = load i32, ptr %5, align 4
  %9 = getelementptr inbounds nuw %"class.OpenSubdiv::v3_6_0::Bfr::SurfaceFactory", ptr %7, i32 0, i32 1
  store i32 %8, ptr %9, align 8
  %10 = load ptr, ptr %6, align 8
  %11 = getelementptr inbounds nuw %"class.OpenSubdiv::v3_6_0::Bfr::SurfaceFactory", ptr %7, i32 0, i32 2
  call void @llvm.memcpy.p0.p0.i64(ptr align 4 %11, ptr align 1 %10, i64 4, i1 false)
  %12 = getelementptr inbounds nuw %"class.OpenSubdiv::v3_6_0::Bfr::SurfaceFactory", ptr %7, i32 0, i32 1
  %13 = load i32, ptr %12, align 8
  %14 = call noundef i32 @_ZN10OpenSubdiv6v3_6_03Sdc16SchemeTypeTraits18GetRegularFaceSizeENS1_10SchemeTypeE(i32 noundef %13)
  %15 = getelementptr inbounds nuw %"class.OpenSubdiv::v3_6_0::Bfr::SurfaceFactory", ptr %7, i32 0, i32 5
  store i32 %14, ptr %15, align 4
  %16 = getelementptr inbounds nuw %"class.OpenSubdiv::v3_6_0::Bfr::SurfaceFactory", ptr %7, i32 0, i32 1
  %17 = load i32, ptr %16, align 8
  %18 = call noundef i32 @_ZN10OpenSubdiv6v3_6_03Sdc16SchemeTypeTraits24GetLocalNeighborhoodSizeENS1_10SchemeTypeE(i32 noundef %17)
  %19 = icmp eq i32 %18, 0
  %20 = zext i1 %19 to i32
  %21 = getelementptr inbounds nuw %"class.OpenSubdiv::v3_6_0::Bfr::SurfaceFactory", ptr %7, i32 0, i32 4
  %22 = trunc i32 %20 to i8
  %23 = load i8, ptr %21, align 8
  %24 = and i8 %22, 1
  %25 = and i8 %23, -2
  %26 = or i8 %25, %24
  store i8 %26, ptr %21, align 8
  %27 = getelementptr inbounds nuw %"class.OpenSubdiv::v3_6_0::Bfr::SurfaceFactory", ptr %7, i32 0, i32 4
  %28 = load i8, ptr %27, align 8
  %29 = and i8 %28, 1
  %30 = zext i8 %29 to i32
  %31 = icmp ne i32 %30, 0
  br i1 %31, label %36, label %32

32:                                               ; preds = %3
  %33 = getelementptr inbounds nuw %"class.OpenSubdiv::v3_6_0::Bfr::SurfaceFactory", ptr %7, i32 0, i32 2
  %34 = call noundef i32 @_ZNK10OpenSubdiv6v3_6_03Sdc7Options26GetFVarLinearInterpolationEv(ptr noundef nonnull align 1 dereferenceable(4) %33)
  %35 = icmp eq i32 %34, 5
  br label %36

36:                                               ; preds = %32, %3
  %37 = phi i1 [ true, %3 ], [ %35, %32 ]
  %38 = zext i1 %37 to i32
  %39 = getelementptr inbounds nuw %"class.OpenSubdiv::v3_6_0::Bfr::SurfaceFactory", ptr %7, i32 0, i32 4
  %40 = trunc i32 %38 to i8
  %41 = load i8, ptr %39, align 8
  %42 = and i8 %40, 1
  %43 = shl i8 %42, 1
  %44 = and i8 %41, -3
  %45 = or i8 %44, %43
  store i8 %45, ptr %39, align 8
  %46 = getelementptr inbounds nuw %"class.OpenSubdiv::v3_6_0::Bfr::SurfaceFactory", ptr %7, i32 0, i32 4
  %47 = load i8, ptr %46, align 8
  %48 = and i8 %47, 1
  %49 = zext i8 %48 to i32
  %50 = icmp ne i32 %49, 0
  br i1 %50, label %55, label %51

51:                                               ; preds = %36
  %52 = getelementptr inbounds nuw %"class.OpenSubdiv::v3_6_0::Bfr::SurfaceFactory", ptr %7, i32 0, i32 2
  %53 = call noundef i32 @_ZNK10OpenSubdiv6v3_6_03Sdc7Options27GetVtxBoundaryInterpolationEv(ptr noundef nonnull align 1 dereferenceable(4) %52)
  %54 = icmp eq i32 %53, 0
  br label %55

55:                                               ; preds = %51, %36
  %56 = phi i1 [ false, %36 ], [ %54, %51 ]
  %57 = zext i1 %56 to i32
  %58 = getelementptr inbounds nuw %"class.OpenSubdiv::v3_6_0::Bfr::SurfaceFactory", ptr %7, i32 0, i32 4
  %59 = trunc i32 %57 to i8
  %60 = load i8, ptr %58, align 8
  %61 = and i8 %59, 1
  %62 = shl i8 %61, 3
  %63 = and i8 %60, -9
  %64 = or i8 %63, %62
  store i8 %64, ptr %58, align 8
  %65 = getelementptr inbounds nuw %"class.OpenSubdiv::v3_6_0::Bfr::SurfaceFactory", ptr %7, i32 0, i32 4
  %66 = load i8, ptr %65, align 8
  %67 = and i8 %66, 1
  %68 = zext i8 %67 to i32
  %69 = icmp ne i32 %68, 0
  br i1 %69, label %74, label %70

70:                                               ; preds = %55
  %71 = getelementptr inbounds nuw %"class.OpenSubdiv::v3_6_0::Bfr::SurfaceFactory", ptr %7, i32 0, i32 5
  %72 = load i32, ptr %71, align 4
  %73 = icmp eq i32 %72, 3
  br label %74

74:                                               ; preds = %70, %55
  %75 = phi i1 [ false, %55 ], [ %73, %70 ]
  %76 = zext i1 %75 to i32
  %77 = getelementptr inbounds nuw %"class.OpenSubdiv::v3_6_0::Bfr::SurfaceFactory", ptr %7, i32 0, i32 4
  %78 = trunc i32 %76 to i8
  %79 = load i8, ptr %77, align 8
  %80 = and i8 %78, 1
  %81 = shl i8 %80, 4
  %82 = and i8 %79, -17
  %83 = or i8 %82, %81
  store i8 %83, ptr %77, align 8
  %84 = getelementptr inbounds nuw %"class.OpenSubdiv::v3_6_0::Bfr::SurfaceFactory", ptr %7, i32 0, i32 4
  %85 = load i8, ptr %84, align 8
  %86 = lshr i8 %85, 3
  %87 = and i8 %86, 1
  %88 = zext i8 %87 to i32
  %89 = icmp ne i32 %88, 0
  br i1 %89, label %97, label %90

90:                                               ; preds = %74
  %91 = getelementptr inbounds nuw %"class.OpenSubdiv::v3_6_0::Bfr::SurfaceFactory", ptr %7, i32 0, i32 4
  %92 = load i8, ptr %91, align 8
  %93 = lshr i8 %92, 4
  %94 = and i8 %93, 1
  %95 = zext i8 %94 to i32
  %96 = icmp ne i32 %95, 0
  br label %97

97:                                               ; preds = %90, %74
  %98 = phi i1 [ true, %74 ], [ %96, %90 ]
  %99 = zext i1 %98 to i32
  %100 = getelementptr inbounds nuw %"class.OpenSubdiv::v3_6_0::Bfr::SurfaceFactory", ptr %7, i32 0, i32 4
  %101 = trunc i32 %99 to i8
  %102 = load i8, ptr %100, align 8
  %103 = and i8 %101, 1
  %104 = shl i8 %103, 2
  %105 = and i8 %102, -5
  %106 = or i8 %105, %104
  store i8 %106, ptr %100, align 8
  ret void
}