; Function Attrs: mustprogress uwtable
define void @_ZN10OpenSubdiv6v3_6_03Bfr14SurfaceFactory21setSubdivisionOptionsENS0_3Sdc10SchemeTypeERKNS3_7OptionsE(ptr noundef nonnull align 8 captures(none) dereferenceable(56) initializes((8, 16), (44, 48)) %0, i32 noundef %1, ptr noundef nonnull readonly align 1 captures(none) dereferenceable(4) %2) local_unnamed_addr #2 align 2 {
  %4 = getelementptr inbounds nuw i8, ptr %0, i64 8
  store i32 %1, ptr %4, align 8
  %5 = getelementptr inbounds nuw i8, ptr %0, i64 12
  %6 = load i32, ptr %2, align 1
  store i32 %6, ptr %5, align 4
  %7 = tail call noundef i32 @_ZN10OpenSubdiv6v3_6_03Sdc16SchemeTypeTraits18GetRegularFaceSizeENS1_10SchemeTypeE(i32 noundef %1)
  %8 = getelementptr inbounds nuw i8, ptr %0, i64 44
  store i32 %7, ptr %8, align 4
  %9 = load i32, ptr %4, align 8
  %10 = tail call noundef i32 @_ZN10OpenSubdiv6v3_6_03Sdc16SchemeTypeTraits24GetLocalNeighborhoodSizeENS1_10SchemeTypeE(i32 noundef %9)
  %11 = icmp eq i32 %10, 0
  %12 = getelementptr inbounds nuw i8, ptr %0, i64 40
  %13 = zext i1 %11 to i8
  %14 = load i8, ptr %12, align 8
  %15 = and i8 %14, -32
  %16 = or disjoint i8 %15, %13
  %17 = getelementptr inbounds nuw i8, ptr %0, i64 13
  %18 = load i8, ptr %17, align 1
  %19 = icmp eq i8 %18, 5
  %20 = select i1 %11, i1 true, i1 %19
  %21 = select i1 %20, i8 2, i8 0
  %22 = or disjoint i8 %21, %16
  %23 = load i8, ptr %5, align 4
  %24 = icmp ne i8 %23, 0
  %.not5 = select i1 %11, i1 true, i1 %24
  %25 = select i1 %.not5, i8 0, i8 8
  %26 = or disjoint i8 %22, %25
  %27 = load i32, ptr %8, align 4
  %28 = icmp ne i32 %27, 3
  %.not6 = select i1 %11, i1 true, i1 %28
  %29 = select i1 %.not6, i8 0, i8 16
  %.lobit = lshr exact i8 %29, 2
  %30 = select i1 %.not5, i8 %.lobit, i8 4
  %31 = or disjoint i8 %26, %30
  %32 = or disjoint i8 %31, %29
  store i8 %32, ptr %12, align 8
  ret void
}